	.text
	.file	"llama"
	.globl	_free_array_of_malloc           # -- Begin function _free_array_of_malloc
	.p2align	4, 0x90
	.type	_free_array_of_malloc,@function
_free_array_of_malloc:                  # @_free_array_of_malloc
	.cfi_startproc
# %bb.0:
	movq	(%rdi), %rdi
	jmp	free@PLT                        # TAILCALL
.Lfunc_end0:
	.size	_free_array_of_malloc, .Lfunc_end0-_free_array_of_malloc
	.cfi_endproc
                                        # -- End function
	.globl	_runtime_error                  # -- Begin function _runtime_error
	.p2align	4, 0x90
	.type	_runtime_error,@function
_runtime_error:                         # @_runtime_error
	.cfi_startproc
# %bb.0:
	pushq	%r15
	.cfi_def_cfa_offset 16
	pushq	%r14
	.cfi_def_cfa_offset 24
	pushq	%rbx
	.cfi_def_cfa_offset 32
	.cfi_offset %rbx, -32
	.cfi_offset %r14, -24
	.cfi_offset %r15, -16
	movq	%rsi, %r14
	movq	%rdi, %r15
	movl	$16, %edi
	callq	GC_malloc@PLT
	movq	%rax, %rbx
	movq	_free_array_of_malloc@GOTPCREL(%rip), %rsi
	movq	%rax, %rdi
	xorl	%edx, %edx
	xorl	%ecx, %ecx
	xorl	%r8d, %r8d
	callq	GC_register_finalizer@PLT
	movq	%r15, (%rbx)
	movq	%r14, 8(%rbx)
	movl	$1, %esi
	movq	%rbx, %rdi
	popq	%rbx
	.cfi_def_cfa_offset 24
	popq	%r14
	.cfi_def_cfa_offset 16
	popq	%r15
	.cfi_def_cfa_offset 8
	jmp	lla_exit_with_error@PLT         # TAILCALL
.Lfunc_end1:
	.size	_runtime_error, .Lfunc_end1-_runtime_error
	.cfi_endproc
                                        # -- End function
	.globl	_binary_int_division            # -- Begin function _binary_int_division
	.p2align	4, 0x90
	.type	_binary_int_division,@function
_binary_int_division:                   # @_binary_int_division
	.cfi_startproc
# %bb.0:
	pushq	%r15
	.cfi_def_cfa_offset 16
	pushq	%r14
	.cfi_def_cfa_offset 24
	pushq	%rbx
	.cfi_def_cfa_offset 32
	.cfi_offset %rbx, -32
	.cfi_offset %r14, -24
	.cfi_offset %r15, -16
	testq	%rsi, %rsi
	je	.LBB2_1
# %bb.3:
	movq	%rdi, %rax
	cqto
	idivq	%rsi
	popq	%rbx
	.cfi_def_cfa_offset 24
	popq	%r14
	.cfi_def_cfa_offset 16
	popq	%r15
	.cfi_def_cfa_offset 8
	retq
.LBB2_1:                                # %.preheader
	.cfi_def_cfa_offset 32
	movq	_free_array_of_malloc@GOTPCREL(%rip), %r14
	leaq	.L__unnamed_1(%rip), %r15
	.p2align	4, 0x90
.LBB2_2:                                # =>This Inner Loop Header: Depth=1
	movl	$16, %edi
	callq	GC_malloc@PLT
	movq	%rax, %rbx
	movq	%rax, %rdi
	movq	%r14, %rsi
	xorl	%edx, %edx
	xorl	%ecx, %ecx
	xorl	%r8d, %r8d
	callq	GC_register_finalizer@PLT
	movq	%r15, (%rbx)
	movq	$33, 8(%rbx)
	movl	$1, %esi
	movq	%rbx, %rdi
	callq	lla_exit_with_error@PLT
	jmp	.LBB2_2
.Lfunc_end2:
	.size	_binary_int_division, .Lfunc_end2-_binary_int_division
	.cfi_endproc
                                        # -- End function
	.globl	_binary_float_division          # -- Begin function _binary_float_division
	.p2align	4, 0x90
	.type	_binary_float_division,@function
_binary_float_division:                 # @_binary_float_division
	.cfi_startproc
# %bb.0:
	pushq	%r15
	.cfi_def_cfa_offset 16
	pushq	%r14
	.cfi_def_cfa_offset 24
	pushq	%rbx
	.cfi_def_cfa_offset 32
	.cfi_offset %rbx, -32
	.cfi_offset %r14, -24
	.cfi_offset %r15, -16
	xorps	%xmm2, %xmm2
	ucomiss	%xmm2, %xmm1
	jne	.LBB3_3
	jp	.LBB3_3
# %bb.1:                                # %.preheader
	movq	_free_array_of_malloc@GOTPCREL(%rip), %r14
	leaq	.L__unnamed_1(%rip), %r15
	.p2align	4, 0x90
.LBB3_2:                                # =>This Inner Loop Header: Depth=1
	movl	$16, %edi
	callq	GC_malloc@PLT
	movq	%rax, %rbx
	movq	%rax, %rdi
	movq	%r14, %rsi
	xorl	%edx, %edx
	xorl	%ecx, %ecx
	xorl	%r8d, %r8d
	callq	GC_register_finalizer@PLT
	movq	%r15, (%rbx)
	movq	$33, 8(%rbx)
	movl	$1, %esi
	movq	%rbx, %rdi
	callq	lla_exit_with_error@PLT
	jmp	.LBB3_2
.LBB3_3:
	divss	%xmm1, %xmm0
	popq	%rbx
	.cfi_def_cfa_offset 24
	popq	%r14
	.cfi_def_cfa_offset 16
	popq	%r15
	.cfi_def_cfa_offset 8
	retq
.Lfunc_end3:
	.size	_binary_float_division, .Lfunc_end3-_binary_float_division
	.cfi_endproc
                                        # -- End function
	.globl	main                            # -- Begin function main
	.p2align	4, 0x90
	.type	main,@function
main:                                   # @main
	.cfi_startproc
# %bb.0:
	pushq	%rbp
	.cfi_def_cfa_offset 16
	pushq	%r15
	.cfi_def_cfa_offset 24
	pushq	%r14
	.cfi_def_cfa_offset 32
	pushq	%r13
	.cfi_def_cfa_offset 40
	pushq	%r12
	.cfi_def_cfa_offset 48
	pushq	%rbx
	.cfi_def_cfa_offset 56
	pushq	%rax
	.cfi_def_cfa_offset 64
	.cfi_offset %rbx, -56
	.cfi_offset %r12, -48
	.cfi_offset %r13, -40
	.cfi_offset %r14, -32
	.cfi_offset %r15, -24
	.cfi_offset %rbp, -16
	callq	GC_init@PLT
	movq	display_array@GOTPCREL(%rip), %r13
	movq	(%r13), %rbp
	movq	%rsp, %rax
	movq	%rax, (%r13)
	movl	$20, %edi
	callq	malloc@PLT
	movq	%rax, %r14
	movl	$16, %edi
	callq	GC_malloc@PLT
	movq	%rax, %r12
	movq	_free_array_of_malloc@GOTPCREL(%rip), %r15
	movq	%rax, %rdi
	movq	%r15, %rsi
	xorl	%edx, %edx
	xorl	%ecx, %ecx
	xorl	%r8d, %r8d
	callq	GC_register_finalizer@PLT
	movq	%r14, (%r12)
	movq	$20, 8(%r12)
	movl	$16, %edi
	callq	GC_malloc@PLT
	movq	%rax, %rbx
	movq	%rax, %rdi
	movq	%r15, %rsi
	xorl	%edx, %edx
	xorl	%ecx, %ecx
	xorl	%r8d, %r8d
	callq	GC_register_finalizer@PLT
	leaq	.L__unnamed_2(%rip), %rax
	movq	%rax, (%rbx)
	movq	$14, 8(%rbx)
	movq	%rbx, %rdi
	movq	%r12, %rsi
	callq	"fn1:reverse"@PLT
	movq	%r12, %rdi
	callq	lla_print_string@PLT
	movq	%rbp, (%r13)
	xorl	%eax, %eax
	addq	$8, %rsp
	.cfi_def_cfa_offset 56
	popq	%rbx
	.cfi_def_cfa_offset 48
	popq	%r12
	.cfi_def_cfa_offset 40
	popq	%r13
	.cfi_def_cfa_offset 32
	popq	%r14
	.cfi_def_cfa_offset 24
	popq	%r15
	.cfi_def_cfa_offset 16
	popq	%rbp
	.cfi_def_cfa_offset 8
	retq
.Lfunc_end4:
	.size	main, .Lfunc_end4-main
	.cfi_endproc
                                        # -- End function
	.globl	"fn1:reverse"                   # -- Begin function fn1:reverse
	.p2align	4, 0x90
	.type	"fn1:reverse",@function
"fn1:reverse":                          # @"fn1:reverse"
	.cfi_startproc
# %bb.0:
	pushq	%r15
	.cfi_def_cfa_offset 16
	pushq	%r14
	.cfi_def_cfa_offset 24
	pushq	%rbx
	.cfi_def_cfa_offset 32
	subq	$96, %rsp
	.cfi_def_cfa_offset 128
	.cfi_offset %rbx, -32
	.cfi_offset %r14, -24
	.cfi_offset %r15, -16
	movq	%rsi, %r14
	movq	%rdi, %rbx
	movq	display_array@GOTPCREL(%rip), %r15
	movq	8(%r15), %rax
	movq	%rax, 32(%rsp)
	movq	%rsp, %rax
	movq	%rax, 8(%r15)
	callq	lla_strlen@PLT
	movq	%rax, 16(%rsp)
	leaq	8(%r14), %rcx
	leaq	8(%rbx), %rdx
	decq	%rax
	movq	%rax, 40(%rsp)
	movq	%rcx, 48(%rsp)
	movq	%rdx, 56(%rsp)
	movq	%r14, 64(%rsp)
	movq	%rbx, 72(%rsp)
	jns	.LBB5_1
.LBB5_11:
	movq	16(%rsp), %rax
	testq	%rax, %rax
	js	.LBB5_13
# %bb.12:
	cmpq	(%rcx), %rax
	jge	.LBB5_13
# %bb.15:
	movq	(%r14), %rcx
	movb	$0, (%rcx,%rax)
	movq	32(%rsp), %rax
	movq	%rax, 8(%r15)
	xorl	%eax, %eax
	addq	$96, %rsp
	.cfi_def_cfa_offset 32
	popq	%rbx
	.cfi_def_cfa_offset 24
	popq	%r14
	.cfi_def_cfa_offset 16
	popq	%r15
	.cfi_def_cfa_offset 8
	retq
.LBB5_1:                                # %.lr.ph
	.cfi_def_cfa_offset 128
	movq	$0, 8(%rsp)
	.p2align	4, 0x90
.LBB5_2:                                # =>This Inner Loop Header: Depth=1
	movq	8(%rsp), %rax
	movq	%rax, 24(%rsp)
	movq	48(%rsp), %rdx
	cmpq	(%rdx), %rax
	jge	.LBB5_3
# %bb.5:                                #   in Loop: Header=BB5_2 Depth=1
	notq	%rax
	addq	16(%rsp), %rax
	movq	%rax, 80(%rsp)
	js	.LBB5_7
# %bb.6:                                #   in Loop: Header=BB5_2 Depth=1
	movq	56(%rsp), %rdx
	cmpq	(%rdx), %rax
	jge	.LBB5_7
# %bb.9:                                #   in Loop: Header=BB5_2 Depth=1
	movq	64(%rsp), %rdx
	movq	(%rdx), %rdx
	movq	24(%rsp), %rsi
	movq	72(%rsp), %rdi
	movq	(%rdi), %rdi
	movzbl	(%rdi,%rax), %eax
	movb	%al, (%rdx,%rsi)
	movq	24(%rsp), %rax
	incq	%rax
	movq	%rax, 88(%rsp)
	cmpq	40(%rsp), %rax
	jg	.LBB5_11
# %bb.10:                               # %._crit_edge48
                                        #   in Loop: Header=BB5_2 Depth=1
	movq	%rax, 8(%rsp)
	jmp	.LBB5_2
.LBB5_13:                               # %.preheader45
	movq	_free_array_of_malloc@GOTPCREL(%rip), %r14
	leaq	.L__unnamed_3(%rip), %r15
	.p2align	4, 0x90
.LBB5_14:                               # =>This Inner Loop Header: Depth=1
	movl	$16, %edi
	callq	GC_malloc@PLT
	movq	%rax, %rbx
	movq	%rax, %rdi
	movq	%r14, %rsi
	xorl	%edx, %edx
	xorl	%ecx, %ecx
	xorl	%r8d, %r8d
	callq	GC_register_finalizer@PLT
	movq	%r15, (%rbx)
	movq	$54, 8(%rbx)
	movl	$1, %esi
	movq	%rbx, %rdi
	callq	lla_exit_with_error@PLT
	jmp	.LBB5_14
.LBB5_3:                                # %.preheader44
	movq	_free_array_of_malloc@GOTPCREL(%rip), %r14
	leaq	.L__unnamed_3(%rip), %r15
	.p2align	4, 0x90
.LBB5_4:                                # =>This Inner Loop Header: Depth=1
	movl	$16, %edi
	callq	GC_malloc@PLT
	movq	%rax, %rbx
	movq	%rax, %rdi
	movq	%r14, %rsi
	xorl	%edx, %edx
	xorl	%ecx, %ecx
	xorl	%r8d, %r8d
	callq	GC_register_finalizer@PLT
	movq	%r15, (%rbx)
	movq	$54, 8(%rbx)
	movl	$1, %esi
	movq	%rbx, %rdi
	callq	lla_exit_with_error@PLT
	jmp	.LBB5_4
.LBB5_7:                                # %.preheader
	movq	_free_array_of_malloc@GOTPCREL(%rip), %r14
	leaq	.L__unnamed_3(%rip), %r15
	.p2align	4, 0x90
.LBB5_8:                                # =>This Inner Loop Header: Depth=1
	movl	$16, %edi
	callq	GC_malloc@PLT
	movq	%rax, %rbx
	movq	%rax, %rdi
	movq	%r14, %rsi
	xorl	%edx, %edx
	xorl	%ecx, %ecx
	xorl	%r8d, %r8d
	callq	GC_register_finalizer@PLT
	movq	%r15, (%rbx)
	movq	$54, 8(%rbx)
	movl	$1, %esi
	movq	%rbx, %rdi
	callq	lla_exit_with_error@PLT
	jmp	.LBB5_8
.Lfunc_end5:
	.size	"fn1:reverse", .Lfunc_end5-"fn1:reverse"
	.cfi_endproc
                                        # -- End function
	.type	display_array,@object           # @display_array
	.bss
	.globl	display_array
	.p2align	3
display_array:
	.zero	16
	.size	display_array, 16

	.type	.L__unnamed_1,@object           # @0
	.section	.rodata.str1.1,"aMS",@progbits,1
.L__unnamed_1:
	.asciz	"Runtime Error: Division by zero\n"
	.size	.L__unnamed_1, 33

	.type	.L__unnamed_3,@object           # @1
.L__unnamed_3:
	.asciz	"Runtime Error: Out of bounds error in array ref call\n"
	.size	.L__unnamed_3, 54

	.type	.L__unnamed_2,@object           # @2
.L__unnamed_2:
	.asciz	"\n!dlrow olleH"
	.size	.L__unnamed_2, 14

	.section	".note.GNU-stack","",@progbits
